; ModuleID = '53/832.c'
source_filename = "53/832.c"
target datalayout = "e-m:e-p270:32:32-p271:32:32-p272:64:64-i64:64-f80:128-n8:16:32:64-S128"
target triple = "x86_64-pc-linux-gnu"

@.str = private unnamed_addr constant [3 x i8] c"%d\00", align 1
@.str.1 = private unnamed_addr constant [4 x i8] c",%d\00", align 1

; Function Attrs: noinline nounwind uwtable
define dso_local void @main() #0 {
  %1 = alloca i32, align 4
  %2 = alloca [301 x i32], align 16
  %3 = alloca [301 x i32], align 16
  %4 = alloca i32, align 4
  %5 = alloca i32, align 4
  %6 = alloca [301 x i32], align 16
  %7 = bitcast [301 x i32]* %2 to i8*
  call void @llvm.memset.p0i8.i64(i8* align 16 %7, i8 0, i64 1204, i1 false)
  %8 = bitcast i8* %7 to <{ i32, [300 x i32] }>*
  %9 = getelementptr inbounds <{ i32, [300 x i32] }>, <{ i32, [300 x i32] }>* %8, i32 0, i32 0
  store i32 32, i32* %9, align 16
  %10 = bitcast [301 x i32]* %3 to i8*
  call void @llvm.memset.p0i8.i64(i8* align 16 %10, i8 0, i64 1204, i1 false)
  %11 = bitcast i8* %10 to <{ i32, [300 x i32] }>*
  %12 = getelementptr inbounds <{ i32, [300 x i32] }>, <{ i32, [300 x i32] }>* %11, i32 0, i32 0
  store i32 32, i32* %12, align 16
  %13 = bitcast [301 x i32]* %6 to i8*
  call void @llvm.memset.p0i8.i64(i8* align 16 %13, i8 0, i64 1204, i1 false)
  %14 = call i32 (i8*, ...) @__isoc99_scanf(i8* getelementptr inbounds ([3 x i8], [3 x i8]* @.str, i64 0, i64 0), i32* %1)
  store i32 0, i32* %4, align 4
  br label %15

15:                                               ; preds = %24, %0
  %16 = load i32, i32* %4, align 4
  %17 = load i32, i32* %1, align 4
  %18 = icmp slt i32 %16, %17
  br i1 %18, label %19, label %27

19:                                               ; preds = %15
  %20 = load i32, i32* %4, align 4
  %21 = sext i32 %20 to i64
  %22 = getelementptr inbounds [301 x i32], [301 x i32]* %2, i64 0, i64 %21
  %23 = call i32 (i8*, ...) @__isoc99_scanf(i8* getelementptr inbounds ([3 x i8], [3 x i8]* @.str, i64 0, i64 0), i32* %22)
  br label %24

24:                                               ; preds = %19
  %25 = load i32, i32* %4, align 4
  %26 = add nsw i32 %25, 1
  store i32 %26, i32* %4, align 4
  br label %15

27:                                               ; preds = %15
  %28 = getelementptr inbounds [301 x i32], [301 x i32]* %2, i64 0, i64 0
  %29 = load i32, i32* %28, align 16
  %30 = getelementptr inbounds [301 x i32], [301 x i32]* %3, i64 0, i64 0
  store i32 %29, i32* %30, align 16
  store i32 1, i32* %4, align 4
  br label %31

31:                                               ; preds = %73, %27
  %32 = load i32, i32* %4, align 4
  %33 = load i32, i32* %1, align 4
  %34 = icmp slt i32 %32, %33
  br i1 %34, label %35, label %76

35:                                               ; preds = %31
  store i32 0, i32* %5, align 4
  br label %36

36:                                               ; preds = %69, %35
  %37 = load i32, i32* %5, align 4
  %38 = load i32, i32* %4, align 4
  %39 = icmp slt i32 %37, %38
  br i1 %39, label %40, label %72

40:                                               ; preds = %36
  %41 = load i32, i32* %4, align 4
  %42 = sext i32 %41 to i64
  %43 = getelementptr inbounds [301 x i32], [301 x i32]* %2, i64 0, i64 %42
  %44 = load i32, i32* %43, align 4
  %45 = load i32, i32* %5, align 4
  %46 = sext i32 %45 to i64
  %47 = getelementptr inbounds [301 x i32], [301 x i32]* %2, i64 0, i64 %46
  %48 = load i32, i32* %47, align 4
  %49 = icmp eq i32 %44, %48
  br i1 %49, label %50, label %51

50:                                               ; preds = %40
  br label %72

51:                                               ; preds = %40
  %52 = load i32, i32* %5, align 4
  %53 = load i32, i32* %4, align 4
  %54 = sub nsw i32 %53, 1
  %55 = icmp eq i32 %52, %54
  br i1 %55, label %56, label %67

56:                                               ; preds = %51
  %57 = load i32, i32* %4, align 4
  %58 = sext i32 %57 to i64
  %59 = getelementptr inbounds [301 x i32], [301 x i32]* %2, i64 0, i64 %58
  %60 = load i32, i32* %59, align 4
  %61 = load i32, i32* %4, align 4
  %62 = sext i32 %61 to i64
  %63 = getelementptr inbounds [301 x i32], [301 x i32]* %3, i64 0, i64 %62
  store i32 %60, i32* %63, align 4
  %64 = load i32, i32* %4, align 4
  %65 = sext i32 %64 to i64
  %66 = getelementptr inbounds [301 x i32], [301 x i32]* %6, i64 0, i64 %65
  store i32 1, i32* %66, align 4
  br label %67

67:                                               ; preds = %56, %51
  br label %68

68:                                               ; preds = %67
  br label %69

69:                                               ; preds = %68
  %70 = load i32, i32* %5, align 4
  %71 = add nsw i32 %70, 1
  store i32 %71, i32* %5, align 4
  br label %36

72:                                               ; preds = %50, %36
  br label %73

73:                                               ; preds = %72
  %74 = load i32, i32* %4, align 4
  %75 = add nsw i32 %74, 1
  store i32 %75, i32* %4, align 4
  br label %31

76:                                               ; preds = %31
  %77 = getelementptr inbounds [301 x i32], [301 x i32]* %3, i64 0, i64 0
  %78 = load i32, i32* %77, align 16
  %79 = call i32 (i8*, ...) @printf(i8* getelementptr inbounds ([3 x i8], [3 x i8]* @.str, i64 0, i64 0), i32 %78)
  store i32 1, i32* %4, align 4
  br label %80

80:                                               ; preds = %97, %76
  %81 = load i32, i32* %4, align 4
  %82 = load i32, i32* %1, align 4
  %83 = icmp slt i32 %81, %82
  br i1 %83, label %84, label %100

84:                                               ; preds = %80
  %85 = load i32, i32* %4, align 4
  %86 = sext i32 %85 to i64
  %87 = getelementptr inbounds [301 x i32], [301 x i32]* %6, i64 0, i64 %86
  %88 = load i32, i32* %87, align 4
  %89 = icmp eq i32 %88, 1
  br i1 %89, label %90, label %96

90:                                               ; preds = %84
  %91 = load i32, i32* %4, align 4
  %92 = sext i32 %91 to i64
  %93 = getelementptr inbounds [301 x i32], [301 x i32]* %3, i64 0, i64 %92
  %94 = load i32, i32* %93, align 4
  %95 = call i32 (i8*, ...) @printf(i8* getelementptr inbounds ([4 x i8], [4 x i8]* @.str.1, i64 0, i64 0), i32 %94)
  br label %96

96:                                               ; preds = %90, %84
  br label %97

97:                                               ; preds = %96
  %98 = load i32, i32* %4, align 4
  %99 = add nsw i32 %98, 1
  store i32 %99, i32* %4, align 4
  br label %80

100:                                              ; preds = %80
  ret void
}

; Function Attrs: argmemonly nounwind willreturn
declare void @llvm.memset.p0i8.i64(i8* nocapture writeonly, i8, i64, i1 immarg) #1

declare dso_local i32 @__isoc99_scanf(i8*, ...) #2

declare dso_local i32 @printf(i8*, ...) #2


!llvm.module.flags = !{!0}
!llvm.ident = !{!1}

!0 = !{i32 1, !"wchar_size", i32 4}
!1 = !{!"clang version 10.0.0-4ubuntu1 "}
