; ModuleID = 'source-C-CXX/52/832.c'
source_filename = "source-C-CXX/52/832.c"
target datalayout = "e-m:e-p270:32:32-p271:32:32-p272:64:64-i64:64-f80:128-n8:16:32:64-S128"
target triple = "x86_64-pc-linux-gnu"

@.str = private unnamed_addr constant [3 x i8] c"%d\00", align 1
@.str.1 = private unnamed_addr constant [4 x i8] c",%d\00", align 1

; Function Attrs: nofree nounwind sspstrong uwtable
define dso_local void @main() local_unnamed_addr #0 {
  %1 = alloca i32, align 4
  %2 = alloca [301 x i32], align 16
  %3 = alloca [301 x i32], align 16
  %4 = alloca [301 x i32], align 16
  %5 = bitcast i32* %1 to i8*
  call void @llvm.lifetime.start.p0i8(i64 4, i8* nonnull %5) #4
  %6 = bitcast [301 x i32]* %2 to i8*
  call void @llvm.lifetime.start.p0i8(i64 1204, i8* nonnull %6) #4
  call void @llvm.memset.p0i8.i64(i8* noundef nonnull align 16 dereferenceable(1204) %6, i8 0, i64 1204, i1 false)
  %7 = getelementptr inbounds [301 x i32], [301 x i32]* %2, i64 0, i64 0
  store i32 32, i32* %7, align 16
  %8 = bitcast [301 x i32]* %3 to i8*
  call void @llvm.lifetime.start.p0i8(i64 1204, i8* nonnull %8) #4
  call void @llvm.memset.p0i8.i64(i8* noundef nonnull align 16 dereferenceable(1204) %8, i8 0, i64 1204, i1 false)
  %9 = bitcast [301 x i32]* %4 to i8*
  call void @llvm.lifetime.start.p0i8(i64 1204, i8* nonnull %9) #4
  call void @llvm.memset.p0i8.i64(i8* noundef nonnull align 16 dereferenceable(1204) %9, i8 0, i64 1204, i1 false)
  %10 = call i32 (i8*, ...) @__isoc99_scanf(i8* getelementptr inbounds ([3 x i8], [3 x i8]* @.str, i64 0, i64 0), i32* nonnull %1)
  %11 = load i32, i32* %1, align 4, !tbaa !5
  %12 = icmp sgt i32 %11, 0
  br i1 %12, label %13, label %47

13:                                               ; preds = %0, %13
  %14 = phi i64 [ %17, %13 ], [ 0, %0 ]
  %15 = getelementptr inbounds [301 x i32], [301 x i32]* %2, i64 0, i64 %14
  %16 = call i32 (i8*, ...) @__isoc99_scanf(i8* getelementptr inbounds ([3 x i8], [3 x i8]* @.str, i64 0, i64 0), i32* nonnull %15)
  %17 = add nuw nsw i64 %14, 1
  %18 = load i32, i32* %1, align 4, !tbaa !5
  %19 = sext i32 %18 to i64
  %20 = icmp slt i64 %17, %19
  br i1 %20, label %13, label %21, !llvm.loop !9

21:                                               ; preds = %13
  %22 = load i32, i32* %7, align 16, !tbaa !5
  %23 = icmp sgt i32 %18, 1
  br i1 %23, label %24, label %47

24:                                               ; preds = %21
  %25 = zext i32 %18 to i64
  br label %26

26:                                               ; preds = %24, %44
  %27 = phi i64 [ 1, %24 ], [ %45, %44 ]
  %28 = getelementptr inbounds [301 x i32], [301 x i32]* %2, i64 0, i64 %27
  %29 = add nsw i64 %27, -1
  %30 = getelementptr inbounds [301 x i32], [301 x i32]* %3, i64 0, i64 %27
  %31 = getelementptr inbounds [301 x i32], [301 x i32]* %4, i64 0, i64 %27
  %32 = load i32, i32* %28, align 4, !tbaa !5
  br label %33

33:                                               ; preds = %26, %41
  %34 = phi i64 [ 0, %26 ], [ %42, %41 ]
  %35 = getelementptr inbounds [301 x i32], [301 x i32]* %2, i64 0, i64 %34
  %36 = load i32, i32* %35, align 4, !tbaa !5
  %37 = icmp eq i32 %32, %36
  br i1 %37, label %44, label %38

38:                                               ; preds = %33
  %39 = icmp eq i64 %34, %29
  br i1 %39, label %40, label %41

40:                                               ; preds = %38
  store i32 %32, i32* %30, align 4, !tbaa !5
  store i32 1, i32* %31, align 4, !tbaa !5
  br label %41

41:                                               ; preds = %40, %38
  %42 = add nuw nsw i64 %34, 1
  %43 = icmp eq i64 %42, %27
  br i1 %43, label %44, label %33, !llvm.loop !11

44:                                               ; preds = %41, %33
  %45 = add nuw nsw i64 %27, 1
  %46 = icmp eq i64 %45, %25
  br i1 %46, label %47, label %26, !llvm.loop !12

47:                                               ; preds = %44, %0, %21
  %48 = phi i32 [ %22, %21 ], [ 32, %0 ], [ %22, %44 ]
  %49 = call i32 (i8*, ...) @printf(i8* nonnull dereferenceable(1) getelementptr inbounds ([3 x i8], [3 x i8]* @.str, i64 0, i64 0), i32 %48)
  %50 = load i32, i32* %1, align 4, !tbaa !5
  %51 = icmp sgt i32 %50, 1
  br i1 %51, label %52, label %68

52:                                               ; preds = %47, %63
  %53 = phi i32 [ %64, %63 ], [ %50, %47 ]
  %54 = phi i64 [ %65, %63 ], [ 1, %47 ]
  %55 = getelementptr inbounds [301 x i32], [301 x i32]* %4, i64 0, i64 %54
  %56 = load i32, i32* %55, align 4, !tbaa !5
  %57 = icmp eq i32 %56, 1
  br i1 %57, label %58, label %63

58:                                               ; preds = %52
  %59 = getelementptr inbounds [301 x i32], [301 x i32]* %3, i64 0, i64 %54
  %60 = load i32, i32* %59, align 4, !tbaa !5
  %61 = call i32 (i8*, ...) @printf(i8* nonnull dereferenceable(1) getelementptr inbounds ([4 x i8], [4 x i8]* @.str.1, i64 0, i64 0), i32 %60)
  %62 = load i32, i32* %1, align 4, !tbaa !5
  br label %63

63:                                               ; preds = %52, %58
  %64 = phi i32 [ %53, %52 ], [ %62, %58 ]
  %65 = add nuw nsw i64 %54, 1
  %66 = sext i32 %64 to i64
  %67 = icmp slt i64 %65, %66
  br i1 %67, label %52, label %68, !llvm.loop !13

68:                                               ; preds = %63, %47
  call void @llvm.lifetime.end.p0i8(i64 1204, i8* nonnull %9) #4
  call void @llvm.lifetime.end.p0i8(i64 1204, i8* nonnull %8) #4
  call void @llvm.lifetime.end.p0i8(i64 1204, i8* nonnull %6) #4
  call void @llvm.lifetime.end.p0i8(i64 4, i8* nonnull %5) #4
  ret void
}

; Function Attrs: argmemonly mustprogress nofree nosync nounwind willreturn
declare void @llvm.lifetime.start.p0i8(i64 immarg, i8* nocapture) #1

; Function Attrs: argmemonly mustprogress nofree nounwind willreturn writeonly
declare void @llvm.memset.p0i8.i64(i8* nocapture writeonly, i8, i64, i1 immarg) #2

; Function Attrs: nofree nounwind
declare noundef i32 @__isoc99_scanf(i8* nocapture noundef readonly, ...) local_unnamed_addr #3

; Function Attrs: nofree nounwind
declare noundef i32 @printf(i8* nocapture noundef readonly, ...) local_unnamed_addr #3

; Function Attrs: argmemonly mustprogress nofree nosync nounwind willreturn
declare void @llvm.lifetime.end.p0i8(i64 immarg, i8* nocapture) #1


!llvm.module.flags = !{!0, !1, !2, !3}
!llvm.ident = !{!4}

!0 = !{i32 1, !"wchar_size", i32 4}
!1 = !{i32 7, !"PIC Level", i32 2}
!2 = !{i32 7, !"PIE Level", i32 2}
!3 = !{i32 7, !"uwtable", i32 1}
!4 = !{!"clang version 13.0.0"}
!5 = !{!6, !6, i64 0}
!6 = !{!"int", !7, i64 0}
!7 = !{!"omnipotent char", !8, i64 0}
!8 = !{!"Simple C/C++ TBAA"}
!9 = distinct !{!9, !10}
!10 = !{!"llvm.loop.mustprogress"}
!11 = distinct !{!11, !10}
!12 = distinct !{!12, !10}
!13 = distinct !{!13, !10}
